	.file	"example2.cpp"
	.text
	.section	.text._ZN4BaseC2Ev,"axG",@progbits,_ZN4BaseC5Ev,comdat
	.align 2
	.weak	_ZN4BaseC2Ev
	.type	_ZN4BaseC2Ev, @function
_ZN4BaseC2Ev:
.LFB3:
	.cfi_startproc
	endbr64
	pushq	%rbp
	.cfi_def_cfa_offset 16
	.cfi_offset 6, -16
	movq	%rsp, %rbp
	.cfi_def_cfa_register 6
	movq	%rdi, -8(%rbp)
	leaq	16+_ZTV4Base(%rip), %rdx
	movq	-8(%rbp), %rax
	movq	%rdx, (%rax)
	nop
	popq	%rbp
	.cfi_def_cfa 7, 8
	ret
	.cfi_endproc
.LFE3:
	.size	_ZN4BaseC2Ev, .-_ZN4BaseC2Ev
	.weak	_ZN4BaseC1Ev
	.set	_ZN4BaseC1Ev,_ZN4BaseC2Ev
	.section	.text._ZN7DerivedC2Ev,"axG",@progbits,_ZN7DerivedC5Ev,comdat
	.align 2
	.weak	_ZN7DerivedC2Ev
	.type	_ZN7DerivedC2Ev, @function
_ZN7DerivedC2Ev:
.LFB5:
	.cfi_startproc
	endbr64
	pushq	%rbp
	.cfi_def_cfa_offset 16
	.cfi_offset 6, -16
	movq	%rsp, %rbp
	.cfi_def_cfa_register 6
	subq	$16, %rsp
	movq	%rdi, -8(%rbp)
	movq	-8(%rbp), %rax
	movq	%rax, %rdi
	call	_ZN4BaseC2Ev
	leaq	16+_ZTV7Derived(%rip), %rdx
	movq	-8(%rbp), %rax
	movq	%rdx, (%rax)
	nop
	leave
	.cfi_def_cfa 7, 8
	ret
	.cfi_endproc
.LFE5:
	.size	_ZN7DerivedC2Ev, .-_ZN7DerivedC2Ev
	.weak	_ZN7DerivedC1Ev
	.set	_ZN7DerivedC1Ev,_ZN7DerivedC2Ev
	.text
	.globl	main
	.type	main, @function
main:
.LFB0:
	.cfi_startproc
	endbr64
	pushq	%rbp
	.cfi_def_cfa_offset 16
	.cfi_offset 6, -16
	movq	%rsp, %rbp
	.cfi_def_cfa_register 6
	subq	$48, %rsp
	movq	%fs:40, %rax
	movq	%rax, -8(%rbp)
	xorl	%eax, %eax
	leaq	-32(%rbp), %rax
	movq	%rax, %rdi
	call	_ZN7DerivedC1Ev
	movl	$1, -36(%rbp)
	leaq	-32(%rbp), %rax
	movq	%rax, %rdi
	call	_ZN7Derived3mf1Ev@PLT
	movl	-36(%rbp), %edx
	leaq	-32(%rbp), %rax
	movl	%edx, %esi
	movq	%rax, %rdi
	call	_ZN4Base3mf1Ei@PLT
	leaq	-32(%rbp), %rax
	movq	%rax, %rdi
	call	_ZN4Base3mf2Ev@PLT
	leaq	-32(%rbp), %rax
	movq	%rax, %rdi
	call	_ZN7Derived3mf3Ev@PLT
	movq	.LC0(%rip), %rdx
	leaq	-32(%rbp), %rax
	movq	%rdx, %xmm0
	movq	%rax, %rdi
	call	_ZN4Base3mf3Ed@PLT
	movl	$0, %eax
	movq	-8(%rbp), %rdx
	subq	%fs:40, %rdx
	je	.L5
	call	__stack_chk_fail@PLT
.L5:
	leave
	.cfi_def_cfa 7, 8
	ret
	.cfi_endproc
.LFE0:
	.size	main, .-main
	.section	.rodata
	.align 8
.LC0:
	.long	1374389535
	.long	1074339512
	.ident	"GCC: (Ubuntu 11.4.0-1ubuntu1~22.04) 11.4.0"
	.section	.note.GNU-stack,"",@progbits
	.section	.note.gnu.property,"a"
	.align 8
	.long	1f - 0f
	.long	4f - 1f
	.long	5
0:
	.string	"GNU"
1:
	.align 8
	.long	0xc0000002
	.long	3f - 2f
2:
	.long	0x3
3:
	.align 8
4:
